	.text
	.file	"jchuff.c"
	.globl	htest_one_block.15      # -- Begin function htest_one_block.15
	.p2align	4, 0x90
	.type	htest_one_block.15,@function
htest_one_block.15:                     # @htest_one_block.15
	.cfi_startproc
# %bb.0:                                # %newFuncRoot
	pushq	%rbp
	.cfi_def_cfa_offset 16
	.cfi_offset %rbp, -16
	movq	%rsp, %rbp
	.cfi_def_cfa_register %rbp
	jmp	.LBB0_3
.LBB0_1:                                # %"16.exitStub"
	movb	$1, %al
	popq	%rbp
	.cfi_def_cfa %rsp, 8
	retq
.LBB0_2:                                # %"17.exitStub"
	.cfi_def_cfa %rbp, 16
	xorl	%eax, %eax
	popq	%rbp
	.cfi_def_cfa %rsp, 8
	retq
.LBB0_3:                                # %"15"
		movl $111, %ebx
		.byte 0x64, 0x67, 0x90
	.cfi_def_cfa %rbp, 16
	movl	(%rdi), %eax
	sarl	$1, %eax
	movl	%eax, (%rdi)
	cmpl	$0, %eax
		movl $222, %ebx
		.byte 0x64, 0x67, 0x90
.Lfunc_end0:
	.size	htest_one_block.15, .Lfunc_end0-htest_one_block.15
	.cfi_endproc
                                        # -- End function
	.ident	"clang version 10.0.0 "
	.section	".note.GNU-stack","",@progbits
