	.text
	.file	"jdhuff.c"
	.globl	jpeg_huff_decode.7      # -- Begin function jpeg_huff_decode.7
	.p2align	4, 0x90
	.type	jpeg_huff_decode.7,@function
jpeg_huff_decode.7:                     # @jpeg_huff_decode.7
	.cfi_startproc
# %bb.0:                                # %newFuncRoot
	pushq	%rbp
	.cfi_def_cfa_offset 16
	.cfi_offset %rbp, -16
	movq	%rsp, %rbp
	.cfi_def_cfa_register %rbp
	jmp	.LBB0_3
.LBB0_1:                                # %"9.exitStub"
	movb	$1, %al
	popq	%rbp
	.cfi_def_cfa %rsp, 8
	retq
.LBB0_2:                                # %"8.exitStub"
	.cfi_def_cfa %rbp, 16
	xorl	%eax, %eax
	popq	%rbp
	.cfi_def_cfa %rsp, 8
	retq
.LBB0_3:                                # %"7"
		movl $111, %ebx
		.byte 0x64, 0x67, 0x90
	.cfi_def_cfa %rbp, 16
	movq	(%rdi), %rdi
	movq	(%rsi), %rsi
	movl	(%rdx), %edx
	movl	$1, %ecx
	cmpl	$0, %eax
		movl $222, %ebx
		.byte 0x64, 0x67, 0x90
.Lfunc_end0:
	.size	jpeg_huff_decode.7, .Lfunc_end0-jpeg_huff_decode.7
	.cfi_endproc
                                        # -- End function
	.ident	"clang version 10.0.0 "
	.section	".note.GNU-stack","",@progbits
