	.text
	.file	"lu.c"
	.globl	kernel_lu.4             # -- Begin function kernel_lu.4
	.p2align	4, 0x90
	.type	kernel_lu.4,@function
kernel_lu.4:                            # @kernel_lu.4
	.cfi_startproc
# %bb.0:                                # %newFuncRoot
	pushq	%rbp
	.cfi_def_cfa_offset 16
	.cfi_offset %rbp, -16
	movq	%rsp, %rbp
	.cfi_def_cfa_register %rbp
	jmp	.LBB0_2
.LBB0_1:                                # %"5.exitStub"
	popq	%rbp
	.cfi_def_cfa %rsp, 8
	retq
.LBB0_2:                                # %"4"
	.cfi_def_cfa %rbp, 16
	movq	(%rdi), %rax
	movslq	(%rsi), %rcx
	shlq	$7, %rcx
	addq	%rcx, %rax
	movslq	(%rdx), %rcx
	movsd	(%rax,%rcx,8), %xmm0    # xmm0 = mem[0],zero
	movq	(%rdi), %rax
	movslq	(%rsi), %rcx
	shlq	$7, %rcx
	addq	%rcx, %rax
	movslq	(%rsi), %rcx
	divsd	(%rax,%rcx,8), %xmm0
	movq	(%rdi), %rax
	movslq	(%rsi), %rcx
	shlq	$7, %rcx
	addq	%rcx, %rax
	movslq	(%rdx), %rcx
	movsd	%xmm0, (%rax,%rcx,8)
	jmp	.LBB0_1
.Lfunc_end0:
	.size	kernel_lu.4, .Lfunc_end0-kernel_lu.4
	.cfi_endproc
                                        # -- End function
	.ident	"clang version 10.0.0 "
	.section	".note.GNU-stack","",@progbits
