	.text
	.file	"tif_print.c"
	.globl	_TIFFprintAscii.2       # -- Begin function _TIFFprintAscii.2
	.p2align	4, 0x90
	.type	_TIFFprintAscii.2,@function
_TIFFprintAscii.2:                      # @_TIFFprintAscii.2
	.cfi_startproc
# %bb.0:                                # %newFuncRoot
	pushq	%rbp
	.cfi_def_cfa_offset 16
	.cfi_offset %rbp, -16
	movq	%rsp, %rbp
	.cfi_def_cfa_register %rbp
	pushq	%rbx
	pushq	%rax
	.cfi_offset %rbx, -24
	movq	%rdi, %rbx
	jmp	.LBB0_3
.LBB0_1:                                # %"3.exitStub"
	movb	$1, %al
	addq	$8, %rsp
	popq	%rbx
	popq	%rbp
	.cfi_def_cfa %rsp, 8
	retq
.LBB0_2:                                # %"4.exitStub"
	.cfi_def_cfa %rbp, 16
	xorl	%eax, %eax
	addq	$8, %rsp
	popq	%rbx
	popq	%rbp
	.cfi_def_cfa %rsp, 8
	retq
.LBB0_3:                                # %"2"
	.cfi_def_cfa %rbp, 16
	callq	__ctype_b_loc
	movq	(%rax), %rax
	movq	(%rbx), %rcx
	movsbl	(%rcx), %ecx
	movslq	%ecx, %rcx
	movzwl	(%rax,%rcx,2), %eax
	andl	$16384, %eax            # imm = 0x4000
	cmpl	$0, %eax
	jne	.LBB0_1
	jmp	.LBB0_2
.Lfunc_end0:
	.size	_TIFFprintAscii.2, .Lfunc_end0-_TIFFprintAscii.2
	.cfi_endproc
                                        # -- End function
	.ident	"clang version 10.0.0 "
	.section	".note.GNU-stack","",@progbits
