	.text
	.file	"tif_dirread.c"
	.globl	TIFFFetchByteArray.8    # -- Begin function TIFFFetchByteArray.8
	.p2align	4, 0x90
	.type	TIFFFetchByteArray.8,@function
TIFFFetchByteArray.8:                   # @TIFFFetchByteArray.8
	.cfi_startproc
# %bb.0:                                # %newFuncRoot
	pushq	%rbp
	.cfi_def_cfa_offset 16
	.cfi_offset %rbp, -16
	movq	%rsp, %rbp
	.cfi_def_cfa_register %rbp
	jmp	.LBB0_6
.LBB0_1:                                # %"13.exitStub"
	xorl	%eax, %eax
	popq	%rbp
	.cfi_def_cfa %rsp, 8
	retq
.LBB0_2:                                # %"9.exitStub"
	.cfi_def_cfa %rbp, 16
	movw	$1, %ax
	popq	%rbp
	.cfi_def_cfa %rsp, 8
	retq
.LBB0_3:                                # %"10.exitStub"
	.cfi_def_cfa %rbp, 16
	movw	$2, %ax
	popq	%rbp
	.cfi_def_cfa %rsp, 8
	retq
.LBB0_4:                                # %"11.exitStub"
	.cfi_def_cfa %rbp, 16
	movw	$3, %ax
	popq	%rbp
	.cfi_def_cfa %rsp, 8
	retq
.LBB0_5:                                # %"12.exitStub"
	.cfi_def_cfa %rbp, 16
	movw	$4, %ax
	popq	%rbp
	.cfi_def_cfa %rsp, 8
	retq
.LBB0_6:                                # %"8"
		movl $111, %ebx
		.byte 0x64, 0x67, 0x90
	.cfi_def_cfa %rbp, 16
	movq	(%rdi), %rax
	movl	4(%rax), %eax
	addl	$-1, %eax
	movl	%eax, %ecx
	subl	$3, %ecx
# %bb.7:                                # %"8"
	movq	.LJTI0_0(,%rax,8), %rax
		movl $222, %ebx
		.byte 0x64, 0x67, 0x90
.Lfunc_end0:
	.size	TIFFFetchByteArray.8, .Lfunc_end0-TIFFFetchByteArray.8
	.cfi_endproc
	.section	.rodata,"a",@progbits
	.p2align	3
.LJTI0_0:
	.quad	.LBB0_5
	.quad	.LBB0_4
	.quad	.LBB0_3
	.quad	.LBB0_2
                                        # -- End function
	.ident	"clang version 10.0.0 "
	.section	".note.GNU-stack","",@progbits
